ccopy_reg
_reconstructor
p0
(cgoogle.oauth2.credentials
Credentials
p1
c__builtin__
object
p2
Ntp3
Rp4
(dp5
S'_quota_project_id'
p6
NsS'_token_uri'
p7
Vhttps://oauth2.googleapis.com/token
p8
sS'_client_secret'
p9
VTBMa4uDdyHoWvWHNYlBwqd-e
p10
sS'_id_token'
p11
NsS'token'
p12
Vya29.a0AfH6SMCK08TBq-Aibeid58ogifroGl_ccfFCyTVOaPGJseMi6cEfXwt1gAwbNyLOrcuBpzT2BpKTIiFvLnx9aHXAlo0zVOT4MvHioV-0zCS2cuSqv1EHEOJUzPa4zJm45aHtBcbiCuvIeBGVZLQBxze3bPLVPwU53Aw
p13
sS'_refresh_token'
p14
V1//0gfMHLgXUNGJzCgYIARAAGBASNwF-L9Irb09pZc1y6NjVeDqVfTmeQxYOHogfpgmWhEVLhvxqcIA3bsm6KD6-NNwZUj_4RkBV834
p15
sS'_scopes'
p16
(lp17
S'https://www.googleapis.com/auth/drive'
p18
aS'https://www.googleapis.com/auth/spreadsheets'
p19
asS'_client_id'
p20
V625077926845-o6d0bvsie7n3k9h0ehdiq9d3ttp47qko.apps.googleusercontent.com
p21
sS'expiry'
p22
cdatetime
datetime
p23
(S"\x07\xe4\x08\x12\x02'\x15\x08\xf7\xb1"
p24
tp25
Rp26
sb.