ccopy_reg
_reconstructor
p0
(cgoogle.oauth2.credentials
Credentials
p1
c__builtin__
object
p2
Ntp3
Rp4
(dp5
S'_quota_project_id'
p6
NsS'_token_uri'
p7
Vhttps://oauth2.googleapis.com/token
p8
sS'_client_secret'
p9
VTBMa4uDdyHoWvWHNYlBwqd-e
p10
sS'_id_token'
p11
NsS'token'
p12
Vya29.a0AfH6SMAO4pxQotOFIsJMN2DDVCnzWFPwa_ElSYcoZmKzpogYf6I1QizD7RZgNUU03F9btKykv8Slb4Uuiw4LqH1tqUxDWfyhbm72qPMbzw3TmDtu6jyPB66HHiUibRasnQZV9UnqjopbBNKOKF41lITcmJ-O2TBSmdk
p13
sS'_refresh_token'
p14
V1//0gn7EXmwKI-SfCgYIARAAGBASNwF-L9IrRh606068N9wyqODeSIJxaLhP66FTWGeJQIANzzrnFGiO2fm0ewjDkWOlAMXadpJcsC0
p15
sS'_scopes'
p16
(lp17
S'https://www.googleapis.com/auth/drive'
p18
asS'_client_id'
p19
V625077926845-o6d0bvsie7n3k9h0ehdiq9d3ttp47qko.apps.googleusercontent.com
p20
sS'expiry'
p21
cdatetime
datetime
p22
(S'\x07\xe4\x08\x12\x15\x1c\x0c\x08\xe8t'
p23
tp24
Rp25
sb.